target datalayout = "e-m:e-p270:32:32-p271:32:32-p272:64:64-i64:64-i128:128-f80:128-n8:16:32:64-S128"
target triple = "x86_64-pc-linux-gnu"

@.str.408 = private unnamed_addr constant [3 x i8] c"RD\00", align 1
@.str.409 = private unnamed_addr constant [3 x i8] c"WR\00", align 1
@.str.410 = private unnamed_addr constant [5 x i8] c"RDWR\00", align 1
@.str.411 = private unnamed_addr constant [8 x i8] c"SHUT_RD\00", align 1
@.str.412 = private unnamed_addr constant [8 x i8] c"SHUT_WR\00", align 1
@.str.413 = private unnamed_addr constant [10 x i8] c"SHUT_RDWR\00", align 1

; Function Attrs: nounwind sspstrong uwtable
define i32 @rsock_shutdown_how_to_int(ptr noundef %0, i64 noundef %1, ptr noundef %2) #0 {
  %4 = alloca i32, align 4
  %5 = alloca ptr, align 8
  %6 = alloca i64, align 8
  %7 = alloca ptr, align 8
  store ptr %0, ptr %5, align 8, !tbaa !6
  store i64 %1, ptr %6, align 8, !tbaa !11
  store ptr %2, ptr %7, align 8, !tbaa !13
  %8 = load i64, ptr %6, align 8, !tbaa !11
  switch i64 %8, label %49 [
    i64 2, label %9
    i64 4, label %22
    i64 7, label %29
    i64 9, label %42
  ]

9:                                                ; preds = %3
  %10 = load ptr, ptr %5, align 8, !tbaa !6
  %11 = call i32 @memcmp(ptr noundef %10, ptr noundef @.str.408, i64 noundef 2) #10
  %12 = icmp eq i32 %11, 0
  br i1 %12, label %13, label %15

13:                                               ; preds = %9
  %14 = load ptr, ptr %7, align 8, !tbaa !13
  store i32 0, ptr %14, align 4, !tbaa !15
  store i32 0, ptr %4, align 4
  br label %57

15:                                               ; preds = %9
  %16 = load ptr, ptr %5, align 8, !tbaa !6
  %17 = call i32 @memcmp(ptr noundef %16, ptr noundef @.str.409, i64 noundef 2) #10
  %18 = icmp eq i32 %17, 0
  br i1 %18, label %19, label %21

19:                                               ; preds = %15
  %20 = load ptr, ptr %7, align 8, !tbaa !13
  store i32 1, ptr %20, align 4, !tbaa !15
  store i32 0, ptr %4, align 4
  br label %57

21:                                               ; preds = %15
  store i32 -1, ptr %4, align 4
  br label %57

22:                                               ; preds = %3
  %23 = load ptr, ptr %5, align 8, !tbaa !6
  %24 = call i32 @memcmp(ptr noundef %23, ptr noundef @.str.410, i64 noundef 4) #10
  %25 = icmp eq i32 %24, 0
  br i1 %25, label %26, label %28

26:                                               ; preds = %22
  %27 = load ptr, ptr %7, align 8, !tbaa !13
  store i32 2, ptr %27, align 4, !tbaa !15
  store i32 0, ptr %4, align 4
  br label %57

28:                                               ; preds = %22
  store i32 -1, ptr %4, align 4
  br label %57

29:                                               ; preds = %3
  %30 = load ptr, ptr %5, align 8, !tbaa !6
  %31 = call i32 @memcmp(ptr noundef %30, ptr noundef @.str.411, i64 noundef 7) #10
  %32 = icmp eq i32 %31, 0
  br i1 %32, label %33, label %35

33:                                               ; preds = %29
  %34 = load ptr, ptr %7, align 8, !tbaa !13
  store i32 0, ptr %34, align 4, !tbaa !15
  store i32 0, ptr %4, align 4
  br label %57

35:                                               ; preds = %29
  %36 = load ptr, ptr %5, align 8, !tbaa !6
  %37 = call i32 @memcmp(ptr noundef %36, ptr noundef @.str.412, i64 noundef 7) #10
  %38 = icmp eq i32 %37, 0
  br i1 %38, label %39, label %41

39:                                               ; preds = %35
  %40 = load ptr, ptr %7, align 8, !tbaa !13
  store i32 1, ptr %40, align 4, !tbaa !15
  store i32 0, ptr %4, align 4
  br label %57

41:                                               ; preds = %35
  store i32 -1, ptr %4, align 4
  br label %57

42:                                               ; preds = %3
  %43 = load ptr, ptr %5, align 8, !tbaa !6
  %44 = call i32 @memcmp(ptr noundef %43, ptr noundef @.str.413, i64 noundef 9) #10
  %45 = icmp eq i32 %44, 0
  br i1 %45, label %46, label %48

46:                                               ; preds = %42
  %47 = load ptr, ptr %7, align 8, !tbaa !13
  store i32 2, ptr %47, align 4, !tbaa !15
  store i32 0, ptr %4, align 4
  br label %57

48:                                               ; preds = %42
  store i32 -1, ptr %4, align 4
  br label %57

49:                                               ; preds = %3
  %50 = load ptr, ptr %5, align 8, !tbaa !6
  %51 = icmp ne ptr %50, null
  br i1 %51, label %52, label %55

52:                                               ; preds = %49
  %53 = load ptr, ptr %7, align 8, !tbaa !13
  %54 = icmp ne ptr %53, null
  br i1 %54, label %56, label %55

55:                                               ; preds = %52, %49
  br label %56

56:                                               ; preds = %55, %52
  store i32 -1, ptr %4, align 4
  br label %57

57:                                               ; preds = %56, %48, %46, %41, %39, %33, %28, %26, %21, %19, %13
  %58 = load i32, ptr %4, align 4
  ret i32 %58
}