; Function Attrs: mustprogress nofree nounwind sspstrong willreturn memory(argmem: readwrite) uwtable
define range(i32 -1, 1) i32 @rsock_shutdown_how_to_int(ptr noundef readonly captures(none) %0, i64 noundef %1, ptr noundef writeonly captures(none) %2) #1 {
  switch i64 %1, label %16 [
    i64 2, label %4
    i64 4, label %8
    i64 7, label %10
    i64 9, label %14
  ]

4:                                                ; preds = %3
  %bcmp19 = tail call i32 @bcmp(ptr noundef nonnull dereferenceable(2) %0, ptr noundef nonnull dereferenceable(2) @.str.408, i64 2)
  %5 = icmp eq i32 %bcmp19, 0
  br i1 %5, label %.sink.split, label %6

6:                                                ; preds = %4
  %bcmp20 = tail call i32 @bcmp(ptr noundef nonnull dereferenceable(2) %0, ptr noundef nonnull dereferenceable(2) @.str.409, i64 2)
  %7 = icmp eq i32 %bcmp20, 0
  br i1 %7, label %.sink.split, label %16

8:                                                ; preds = %3
  %bcmp18 = tail call i32 @bcmp(ptr noundef nonnull dereferenceable(4) %0, ptr noundef nonnull dereferenceable(4) @.str.410, i64 4)
  %9 = icmp eq i32 %bcmp18, 0
  br i1 %9, label %.sink.split, label %16

10:                                               ; preds = %3
  %bcmp16 = tail call i32 @bcmp(ptr noundef nonnull dereferenceable(7) %0, ptr noundef nonnull dereferenceable(7) @.str.411, i64 7)
  %11 = icmp eq i32 %bcmp16, 0
  br i1 %11, label %.sink.split, label %12

12:                                               ; preds = %10
  %bcmp17 = tail call i32 @bcmp(ptr noundef nonnull dereferenceable(7) %0, ptr noundef nonnull dereferenceable(7) @.str.412, i64 7)
  %13 = icmp eq i32 %bcmp17, 0
  br i1 %13, label %.sink.split, label %16

14:                                               ; preds = %3
  %bcmp = tail call i32 @bcmp(ptr noundef nonnull dereferenceable(9) %0, ptr noundef nonnull dereferenceable(9) @.str.413, i64 9)
  %15 = icmp eq i32 %bcmp, 0
  br i1 %15, label %.sink.split, label %16

.sink.split:                                      ; preds = %14, %12, %10, %8, %6, %4
  %.sink = phi i32 [ 0, %4 ], [ 1, %6 ], [ 2, %8 ], [ 0, %10 ], [ 1, %12 ], [ 2, %14 ]
  store i32 %.sink, ptr %2, align 4, !tbaa !6
  br label %16

16:                                               ; preds = %.sink.split, %3, %14, %12, %8, %6
  %.0 = phi i32 [ -1, %6 ], [ -1, %8 ], [ -1, %12 ], [ -1, %14 ], [ -1, %3 ], [ 0, %.sink.split ]
  ret i32 %.0
}